target datalayout = "e-m:e-p270:32:32-p271:32:32-p272:64:64-i64:64-i128:128-f80:128-n8:16:32:64-S128"
target triple = "x86_64-pc-linux-gnu"

%"class.ZXing::BitMatrix" = type { i32, i32, %"class.std::vector" }
%"class.std::vector" = type { %"struct.std::_Vector_base" }
%"struct.std::_Vector_base" = type { %"struct.std::_Vector_base<unsigned char, std::allocator<unsigned char>>::_Vector_impl" }
%"struct.std::_Vector_base<unsigned char, std::allocator<unsigned char>>::_Vector_impl" = type { %"struct.std::_Vector_base<unsigned char, std::allocator<unsigned char>>::_Vector_impl_data" }
%"struct.std::_Vector_base<unsigned char, std::allocator<unsigned char>>::_Vector_impl_data" = type { ptr, ptr, ptr }
%"class.std::__cxx11::basic_string.3" = type { %"struct.std::__cxx11::basic_string<wchar_t>::_Alloc_hider", i64, %union.anon.7 }
%"struct.std::__cxx11::basic_string<wchar_t>::_Alloc_hider" = type { ptr }
%union.anon.7 = type { i64, [8 x i8] }
%"class.std::basic_string_view" = type { i64, ptr }

; Function Attrs: mustprogress uwtable
define void @_ZNK5ZXing5Aztec6Writer6encodeERKNSt7__cxx1112basic_stringIcSt11char_traitsIcESaIcEEEii(ptr dead_on_unwind noalias writable sret(%"class.ZXing::BitMatrix") align 8 %0, ptr noundef nonnull align 4 dereferenceable(16) %1, ptr noundef nonnull align 8 dereferenceable(32) %2, i32 noundef %3, i32 noundef %4) #1 align 2 personality ptr @__gxx_personality_v0 {
  %6 = alloca ptr, align 8
  %7 = alloca ptr, align 8
  %8 = alloca ptr, align 8
  %9 = alloca i32, align 4
  %10 = alloca i32, align 4
  %11 = alloca %"class.std::__cxx11::basic_string.3", align 8
  %12 = alloca %"class.std::basic_string_view", align 8
  %13 = alloca ptr, align 8
  %14 = alloca i32, align 4
  store ptr %0, ptr %6, align 8
  store ptr %1, ptr %7, align 8
  store ptr %2, ptr %8, align 8
  store i32 %3, ptr %9, align 4
  store i32 %4, ptr %10, align 4
  %15 = load ptr, ptr %7, align 8
  %16 = load ptr, ptr %8, align 8
  %17 = call { i64, ptr } @_ZNKSt7__cxx1112basic_stringIcSt11char_traitsIcESaIcEEcvSt17basic_string_viewIcS2_EEv(ptr noundef nonnull align 8 dereferenceable(32) %16) #6
  %18 = getelementptr inbounds { i64, ptr }, ptr %12, i32 0, i32 0
  %19 = extractvalue { i64, ptr } %17, 0
  store i64 %19, ptr %18, align 8
  %20 = getelementptr inbounds { i64, ptr }, ptr %12, i32 0, i32 1
  %21 = extractvalue { i64, ptr } %17, 1
  store ptr %21, ptr %20, align 8
  %22 = getelementptr inbounds { i64, ptr }, ptr %12, i32 0, i32 0
  %23 = load i64, ptr %22, align 8
  %24 = getelementptr inbounds { i64, ptr }, ptr %12, i32 0, i32 1
  %25 = load ptr, ptr %24, align 8
  call void @_ZN5ZXing8FromUtf8B5cxx11ESt17basic_string_viewIcSt11char_traitsIcEE(ptr dead_on_unwind writable sret(%"class.std::__cxx11::basic_string.3") align 8 %11, i64 %23, ptr %25)
  %26 = load i32, ptr %9, align 4
  %27 = load i32, ptr %10, align 4
  invoke void @_ZNK5ZXing5Aztec6Writer6encodeERKNSt7__cxx1112basic_stringIwSt11char_traitsIwESaIwEEEii(ptr dead_on_unwind writable sret(%"class.ZXing::BitMatrix") align 8 %0, ptr noundef nonnull align 4 dereferenceable(16) %15, ptr noundef nonnull align 8 dereferenceable(32) %11, i32 noundef %26, i32 noundef %27)
          to label %28 unwind label %29

28:                                               ; preds = %5
  call void @_ZNSt7__cxx1112basic_stringIwSt11char_traitsIwESaIwEED1Ev(ptr noundef nonnull align 8 dereferenceable(32) %11) #6
  ret void

29:                                               ; preds = %5
  %30 = landingpad { ptr, i32 }
          cleanup
  %31 = extractvalue { ptr, i32 } %30, 0
  store ptr %31, ptr %13, align 8
  %32 = extractvalue { ptr, i32 } %30, 1
  store i32 %32, ptr %14, align 4
  call void @_ZNSt7__cxx1112basic_stringIwSt11char_traitsIwESaIwEED1Ev(ptr noundef nonnull align 8 dereferenceable(32) %11) #6
  br label %33

33:                                               ; preds = %29
  %34 = load ptr, ptr %13, align 8
  %35 = load i32, ptr %14, align 4
  %36 = insertvalue { ptr, i32 } poison, ptr %34, 0
  %37 = insertvalue { ptr, i32 } %36, i32 %35, 1
  resume { ptr, i32 } %37
}